; Function Attrs: mustprogress uwtable
define void @_ZN6casadi2MXC2ERKNS_8SparsityERKNSt7__cxx1112basic_stringIcSt11char_traitsIcESaIcEEE(ptr noundef nonnull align 8 dereferenceable(8) %0, ptr noundef nonnull align 8 dereferenceable(8) %1, ptr noundef nonnull align 8 dereferenceable(32) %2) unnamed_addr #3 align 2 personality ptr @__gxx_personality_v0 {
  tail call void @_ZN6casadi12SharedObjectC2Ev(ptr noundef nonnull align 8 dereferenceable(8) %0)
  %4 = invoke noundef ptr @_ZN6casadi10ConstantMX6createERKNS_8SparsityERKNSt7__cxx1112basic_stringIcSt11char_traitsIcESaIcEEE(ptr noundef nonnull align 8 dereferenceable(8) %1, ptr noundef nonnull align 8 dereferenceable(32) %2)
          to label %5 unwind label %7

5:                                                ; preds = %3
  invoke void @_ZN6casadi12SharedObject3ownEPNS_20SharedObjectInternalE(ptr noundef nonnull align 8 dereferenceable(8) %0, ptr noundef %4)
          to label %6 unwind label %7

6:                                                ; preds = %5
  ret void

7:                                                ; preds = %5, %3
  %8 = landingpad { ptr, i32 }
          cleanup
  tail call void @_ZN6casadi12SharedObjectD2Ev(ptr noundef nonnull align 8 dereferenceable(8) %0) #27
  resume { ptr, i32 } %8
}